target datalayout = "e-m:e-p270:32:32-p271:32:32-p272:64:64-i64:64-i128:128-f80:128-n8:16:32:64-S128"
target triple = "x86_64-pc-linux-gnu"

%"class.icu_77::CollationKey" = type { %"class.icu_77::UObject", i32, i32, %"union.icu_77::CollationKey::StackBufferOrFields" }
%"class.icu_77::UObject" = type { ptr }
%"union.icu_77::CollationKey::StackBufferOrFields" = type { %struct.anon, [16 x i8] }
%struct.anon = type { ptr, i32 }

; Function Attrs: mustprogress nounwind uwtable
define void @_ZN6icu_7712CollationKey9setLengthEi(ptr noundef nonnull align 8 dereferenceable(48) %0, i32 noundef %1) #0 align 2 {
  %3 = alloca ptr, align 8
  %4 = alloca i32, align 4
  store ptr %0, ptr %3, align 8, !tbaa !3
  store i32 %1, ptr %4, align 4, !tbaa !19
  %5 = load ptr, ptr %3, align 8
  %6 = getelementptr inbounds nuw %"class.icu_77::CollationKey", ptr %5, i32 0, i32 1
  %7 = load i32, ptr %6, align 8, !tbaa !10
  %8 = and i32 %7, -2147483648
  %9 = load i32, ptr %4, align 4, !tbaa !19
  %10 = or i32 %8, %9
  %11 = getelementptr inbounds nuw %"class.icu_77::CollationKey", ptr %5, i32 0, i32 1
  store i32 %10, ptr %11, align 8, !tbaa !10
  %12 = getelementptr inbounds nuw %"class.icu_77::CollationKey", ptr %5, i32 0, i32 2
  store i32 0, ptr %12, align 4, !tbaa !14
  ret void
}