; Function Attrs: mustprogress nofree norecurse nosync nounwind willreturn memory(argmem: readwrite) uwtable
define void @_ZN6icu_7712CollationKey9setLengthEi(ptr noundef nonnull align 8 captures(none) dereferenceable(48) initializes((12, 16)) %0, i32 noundef %1) local_unnamed_addr #3 align 2 {
  %3 = getelementptr inbounds nuw i8, ptr %0, i64 8
  %4 = load i32, ptr %3, align 8, !tbaa !6
  %5 = and i32 %4, -2147483648
  %6 = or i32 %5, %1
  store i32 %6, ptr %3, align 8, !tbaa !6
  %7 = getelementptr inbounds nuw i8, ptr %0, i64 12
  store i32 0, ptr %7, align 4, !tbaa !11
  ret void
}